; Function Attrs: mustprogress uwtable
define void @_ZN8facebook5velox19HashStringAllocator18newContiguousRangeEiPNS0_9ByteRangeE(ptr noundef nonnull align 8 dereferenceable(37416) %this, i32 noundef %bytes, ptr nocapture noundef writeonly %range) local_unnamed_addr #0 align 2 {
entry:
  %currentHeader_.i = getelementptr inbounds i8, ptr %this, i64 37272
  %0 = load ptr, ptr %currentHeader_.i, align 8
  %tobool.not.i = icmp eq ptr %0, null
  br i1 %tobool.not.i, label %if.then.i, label %_ZN8facebook5velox19HashStringAllocator8newRangeEiPNS0_9ByteRangeES3_b.exit

if.then.i:                                        ; preds = %entry
  tail call void @llvm.trap()
  unreachable

_ZN8facebook5velox19HashStringAllocator8newRangeEiPNS0_9ByteRangeES3_b.exit: ; preds = %entry
  %call.i = tail call noundef ptr @_ZN8facebook5velox19HashStringAllocator8allocateEib(ptr noundef nonnull align 8 dereferenceable(37416) %this, i32 noundef %bytes, i1 noundef zeroext true)
  %1 = load ptr, ptr %currentHeader_.i, align 8
  %add.ptr.i.i.i = getelementptr inbounds i8, ptr %1, i64 4
  %2 = load i32, ptr %1, align 4
  %and.i.i.i = and i32 %2, 536870911
  %idx.ext.i.i = zext nneg i32 %and.i.i.i to i64
  %add.ptr.i.i = getelementptr inbounds i8, ptr %add.ptr.i.i.i, i64 %idx.ext.i.i
  %add.ptr.i = getelementptr inbounds i8, ptr %add.ptr.i.i, i64 -8
  %3 = load ptr, ptr %add.ptr.i, align 8
  %add.ptr.i8.i = getelementptr inbounds i8, ptr %call.i, i64 4
  store ptr %3, ptr %add.ptr.i8.i, align 8
  store ptr %call.i, ptr %add.ptr.i, align 8
  %4 = load ptr, ptr %currentHeader_.i, align 8
  %5 = load i32, ptr %4, align 4
  %or.i.i = or i32 %5, 1073741824
  store i32 %or.i.i, ptr %4, align 4
  store ptr %call.i, ptr %currentHeader_.i, align 8
  %6 = load i32, ptr %call.i, align 4
  %and.i.i = and i32 %6, 536870911
  store ptr %add.ptr.i8.i, ptr %range, align 8
  %ref.tmp.sroa.2.0..sroa_idx.i = getelementptr inbounds i8, ptr %range, i64 8
  store i32 %and.i.i, ptr %ref.tmp.sroa.2.0..sroa_idx.i, align 8
  %ref.tmp.sroa.3.0..sroa_idx.i = getelementptr inbounds i8, ptr %range, i64 12
  store i32 8, ptr %ref.tmp.sroa.3.0..sroa_idx.i, align 4
  ret void
}